(i__main__
LinkedList
p1
(dp2
S'listName'
p3
S'CPMC'
p4
sS'head_node'
p5
(i__main__
Node
p6
(dp7
S'content'
p8
S'Key Dates'
p9
sS'startDate'
p10
NsS'next_node'
p11
(i__main__
Node
p12
(dp13
g8
S'Declutter'
p14
sg10
Nsg11
(i__main__
Node
p15
(dp16
g8
S'Test'
p17
sg10
Nsg11
(i__main__
Node
p18
(dp19
g8
S'test'
p20
sg10
Nsg11
(i__main__
Node
p21
(dp22
g8
S'Test Remove'
p23
sg10
Nsg11
(i__main__
Node
p24
(dp25
g8
S'Facility Specialists'
p26
sg10
Nsg11
(i__main__
Node
p27
(dp28
g8
S'Training'
p29
sg10
Nsg11
(i__main__
Node
p30
(dp31
g8
S'Download your Guides'
p32
sg10
Nsg11
(i__main__
Node
p33
(dp34
g8
S'Electric W2'
p35
sg10
Nsg11
(i__main__
Node
p36
(dp37
g8
S'Colleagues Campaign'
p38
sg10
Nsg11
(i__main__
Node
p39
(dp40
g8
S'Holiday Parties'
p41
sg10
Nsg11
(i__main__
Node
p42
(dp43
g8
S'Diabetes'
p44
sg10
Nsg11
(i__main__
Node
p45
(dp46
g8
S'Holiday Sale'
p47
sg10
Nsg11
NsS'endDate'
p48
S'2018-12-25'
p49
sS'name'
p50
S'Slide9'
p51
sbsg48
S'2018-12-30'
p52
sg50
S'Slide8'
p53
sbsg48
S'2018-12-13'
p54
sg50
S'Slide7'
p55
sbsg48
g52
sg50
S'Slide6'
p56
sbsg48
S'2019-01-04'
p57
sg50
S'Slide5'
p58
sbsg48
S'2019-5-04'
p59
sg50
S'Slide4'
p60
sbsg48
S'2019-2-01'
p61
sg50
S'Slide3'
p62
sbsg48
S'2019-3-03'
p63
sg50
S'Slide2'
p64
sbsg48
S'2018-11-30'
p65
sg50
S'Slide13'
p66
sbsg48
g54
sg50
S'Slide12'
p67
sbsg48
S'2018-12-03'
p68
sg50
S'Slide11'
p69
sbsg48
S'2019-1-04'
p70
sg50
S'Slide10'
p71
sbsg48
S'2019-3-04'
p72
sg50
S'Slide1'
p73
sbsb.