(i__main__
LinkedList
p1
(dp2
S'listName'
p3
S'CPMC'
p4
sS'head_node'
p5
(i__main__
Node
p6
(dp7
S'content'
p8
S'Key Dates'
p9
sS'startDate'
p10
NsS'next_node'
p11
(i__main__
Node
p12
(dp13
g8
S'Declutter'
p14
sg10
Nsg11
(i__main__
Node
p15
(dp16
g8
S'Facility Specialists'
p17
sg10
Nsg11
(i__main__
Node
p18
(dp19
g8
S'Training'
p20
sg10
Nsg11
(i__main__
Node
p21
(dp22
g8
S'Download your Guides'
p23
sg10
Nsg11
(i__main__
Node
p24
(dp25
g8
S'Electric W2'
p26
sg10
Nsg11
(i__main__
Node
p27
(dp28
g8
S'Colleagues Campaign'
p29
sg10
Nsg11
(i__main__
Node
p30
(dp31
g8
S'Diabetes'
p32
sg10
Nsg11
(i__main__
Node
p33
(dp34
g8
S'Holiday Sale'
p35
sg10
Nsg11
NsS'endDate'
p36
S'2018-12-25'
p37
sS'name'
p38
S'Slide9'
p39
sbsg36
S'2018-12-30'
p40
sg38
S'Slide8'
p41
sbsg36
g40
sg38
S'Slide6'
p42
sbsg36
S'2019-01-04'
p43
sg38
S'Slide5'
p44
sbsg36
S'2019-5-04'
p45
sg38
S'Slide4'
p46
sbsg36
S'2019-2-01'
p47
sg38
S'Slide3'
p48
sbsg36
S'2019-3-03'
p49
sg38
S'Slide2'
p50
sbsg36
S'2019-1-04'
p51
sg38
S'Slide10'
p52
sbsg36
S'2019-3-04'
p53
sg38
S'Slide1'
p54
sbsb.